target datalayout = "e-m:e-p270:32:32-p271:32:32-p272:64:64-i64:64-i128:128-f80:128-n8:16:32:64-S128"
target triple = "x86_64-pc-linux-gnu"

%"class.std::optional" = type { %"struct.std::_Optional_base" }
%"struct.std::_Optional_base" = type { %"struct.std::_Optional_payload" }
%"struct.std::_Optional_payload" = type { %"struct.std::_Optional_payload_base.base", [7 x i8] }
%"struct.std::_Optional_payload_base.base" = type <{ %"union.std::_Optional_payload_base<const Luau::Type *>::_Storage", i8 }>
%"union.std::_Optional_payload_base<const Luau::Type *>::_Storage" = type { ptr }
%"struct.Luau::NotNull" = type { ptr }
%"struct.Luau::NotNull.16" = type { ptr }
%"struct.Luau::ApplyMappedGenerics" = type { %"struct.Luau::Substitution", %"struct.Luau::NotNull", %"struct.Luau::NotNull.16", ptr }
%"struct.Luau::Substitution" = type { %"struct.Luau::Tarjan", ptr, %"class.Luau::DenseHashMap.47", %"class.Luau::DenseHashMap.50", %"class.Luau::DenseHashSet.53", %"class.Luau::DenseHashSet.56", %"class.Luau::DenseHashSet.53", %"class.Luau::DenseHashSet.56" }
%"struct.Luau::Tarjan" = type { ptr, %"class.Luau::DenseHashMap", %"class.Luau::DenseHashMap.19", %"class.std::vector.22", %"class.std::vector.27", i32, i32, ptr, %"class.std::vector.32", %"class.std::vector.37", %"class.std::vector.42" }
%"class.Luau::DenseHashMap" = type { %"class.Luau::detail::DenseHashTable.17" }
%"class.Luau::detail::DenseHashTable.17" = type <{ ptr, i64, i64, ptr, [8 x i8] }>
%"class.Luau::DenseHashMap.19" = type { %"class.Luau::detail::DenseHashTable.20" }
%"class.Luau::detail::DenseHashTable.20" = type <{ ptr, i64, i64, ptr, [8 x i8] }>
%"class.std::vector.22" = type { %"struct.std::_Vector_base.23" }
%"struct.std::_Vector_base.23" = type { %"struct.std::_Vector_base<Luau::TarjanNode, std::allocator<Luau::TarjanNode>>::_Vector_impl" }
%"struct.std::_Vector_base<Luau::TarjanNode, std::allocator<Luau::TarjanNode>>::_Vector_impl" = type { %"struct.std::_Vector_base<Luau::TarjanNode, std::allocator<Luau::TarjanNode>>::_Vector_impl_data" }
%"struct.std::_Vector_base<Luau::TarjanNode, std::allocator<Luau::TarjanNode>>::_Vector_impl_data" = type { ptr, ptr, ptr }
%"class.std::vector.27" = type { %"struct.std::_Vector_base.28" }
%"struct.std::_Vector_base.28" = type { %"struct.std::_Vector_base<int, std::allocator<int>>::_Vector_impl" }
%"struct.std::_Vector_base<int, std::allocator<int>>::_Vector_impl" = type { %"struct.std::_Vector_base<int, std::allocator<int>>::_Vector_impl_data" }
%"struct.std::_Vector_base<int, std::allocator<int>>::_Vector_impl_data" = type { ptr, ptr, ptr }
%"class.std::vector.32" = type { %"struct.std::_Vector_base.33" }
%"struct.std::_Vector_base.33" = type { %"struct.std::_Vector_base<const Luau::Type *, std::allocator<const Luau::Type *>>::_Vector_impl" }
%"struct.std::_Vector_base<const Luau::Type *, std::allocator<const Luau::Type *>>::_Vector_impl" = type { %"struct.std::_Vector_base<const Luau::Type *, std::allocator<const Luau::Type *>>::_Vector_impl_data" }
%"struct.std::_Vector_base<const Luau::Type *, std::allocator<const Luau::Type *>>::_Vector_impl_data" = type { ptr, ptr, ptr }
%"class.std::vector.37" = type { %"struct.std::_Vector_base.38" }
%"struct.std::_Vector_base.38" = type { %"struct.std::_Vector_base<const Luau::TypePackVar *, std::allocator<const Luau::TypePackVar *>>::_Vector_impl" }
%"struct.std::_Vector_base<const Luau::TypePackVar *, std::allocator<const Luau::TypePackVar *>>::_Vector_impl" = type { %"struct.std::_Vector_base<const Luau::TypePackVar *, std::allocator<const Luau::TypePackVar *>>::_Vector_impl_data" }
%"struct.std::_Vector_base<const Luau::TypePackVar *, std::allocator<const Luau::TypePackVar *>>::_Vector_impl_data" = type { ptr, ptr, ptr }
%"class.std::vector.42" = type { %"struct.std::_Vector_base.43" }
%"struct.std::_Vector_base.43" = type { %"struct.std::_Vector_base<Luau::TarjanWorklistVertex, std::allocator<Luau::TarjanWorklistVertex>>::_Vector_impl" }
%"struct.std::_Vector_base<Luau::TarjanWorklistVertex, std::allocator<Luau::TarjanWorklistVertex>>::_Vector_impl" = type { %"struct.std::_Vector_base<Luau::TarjanWorklistVertex, std::allocator<Luau::TarjanWorklistVertex>>::_Vector_impl_data" }
%"struct.std::_Vector_base<Luau::TarjanWorklistVertex, std::allocator<Luau::TarjanWorklistVertex>>::_Vector_impl_data" = type { ptr, ptr, ptr }
%"class.Luau::DenseHashMap.47" = type { %"class.Luau::detail::DenseHashTable.48" }
%"class.Luau::detail::DenseHashTable.48" = type <{ ptr, i64, i64, ptr, [8 x i8] }>
%"class.Luau::DenseHashMap.50" = type { %"class.Luau::detail::DenseHashTable.51" }
%"class.Luau::detail::DenseHashTable.51" = type <{ ptr, i64, i64, ptr, [8 x i8] }>
%"class.Luau::DenseHashSet.53" = type { %"class.Luau::detail::DenseHashTable.54" }
%"class.Luau::detail::DenseHashTable.54" = type <{ ptr, i64, i64, ptr, [8 x i8] }>
%"class.Luau::DenseHashSet.56" = type { %"class.Luau::detail::DenseHashTable.57" }
%"class.Luau::detail::DenseHashTable.57" = type <{ ptr, i64, i64, ptr, [8 x i8] }>

; Function Attrs: mustprogress nounwind uwtable
define linkonce_odr dso_local noundef ptr @_ZNK4Luau7NotNullINS_9TypeArenaEEcvPS1_Ev(ptr noundef nonnull align 8 dereferenceable(8) %0) #2 comdat align 2 {
  %2 = alloca ptr, align 8
  store ptr %0, ptr %2, align 8, !tbaa !477
  %3 = load ptr, ptr %2, align 8
  %4 = getelementptr inbounds nuw %"struct.Luau::NotNull.16", ptr %3, i32 0, i32 0
  %5 = load ptr, ptr %4, align 8, !tbaa !479
  ret ptr %5
}

; Function Attrs: mustprogress uwtable
define linkonce_odr dso_local void @_ZN4Luau19ApplyMappedGenericsC2ENS_7NotNullINS_12BuiltinTypesEEENS1_INS_9TypeArenaEEERNS_20SubtypingEnvironmentE(ptr noundef nonnull align 8 dereferenceable(496) %0, ptr %1, ptr %2, ptr noundef nonnull align 8 dereferenceable(176) %3) unnamed_addr #6 comdat align 2 {
  %5 = alloca %"struct.Luau::NotNull", align 8
  %6 = alloca %"struct.Luau::NotNull.16", align 8
  %7 = alloca ptr, align 8
  %8 = alloca ptr, align 8
  %9 = getelementptr inbounds nuw %"struct.Luau::NotNull", ptr %5, i32 0, i32 0
  store ptr %1, ptr %9, align 8
  %10 = getelementptr inbounds nuw %"struct.Luau::NotNull.16", ptr %6, i32 0, i32 0
  store ptr %2, ptr %10, align 8
  store ptr %0, ptr %7, align 8, !tbaa !104
  store ptr %3, ptr %8, align 8, !tbaa !94
  %11 = load ptr, ptr %7, align 8
  %12 = call noundef ptr @_ZN4Luau6TxnLog5emptyEv()
  %13 = call noundef ptr @_ZNK4Luau7NotNullINS_9TypeArenaEEcvPS1_Ev(ptr noundef nonnull align 8 dereferenceable(8) %6) #4
  call void @_ZN4Luau12SubstitutionC2EPKNS_6TxnLogEPNS_9TypeArenaE(ptr noundef nonnull align 8 dereferenceable(472) %11, ptr noundef %12, ptr noundef %13)
  store ptr getelementptr inbounds inrange(-16, 80) ({ [12 x ptr] }, ptr @_ZTVN4Luau19ApplyMappedGenericsE, i32 0, i32 0, i32 2), ptr %11, align 8, !tbaa !106
  %14 = getelementptr inbounds nuw %"struct.Luau::ApplyMappedGenerics", ptr %11, i32 0, i32 1
  call void @llvm.memcpy.p0.p0.i64(ptr align 8 %14, ptr align 8 %5, i64 8, i1 false), !tbaa.struct !98
  %15 = getelementptr inbounds nuw %"struct.Luau::ApplyMappedGenerics", ptr %11, i32 0, i32 2
  call void @llvm.memcpy.p0.p0.i64(ptr align 8 %15, ptr align 8 %6, i64 8, i1 false), !tbaa.struct !101
  %16 = getelementptr inbounds nuw %"struct.Luau::ApplyMappedGenerics", ptr %11, i32 0, i32 3
  %17 = load ptr, ptr %8, align 8, !tbaa !94
  store ptr %17, ptr %16, align 8, !tbaa !94
  ret void
}

; Function Attrs: mustprogress uwtable
define dso_local { ptr, i8 } @_ZN4Luau20SubtypingEnvironment19applyMappedGenericsENS_7NotNullINS_12BuiltinTypesEEENS1_INS_9TypeArenaEEEPKNS_4TypeE(ptr noundef nonnull align 8 dereferenceable(176) %0, ptr %1, ptr %2, ptr noundef %3) #6 align 2 personality ptr @__gxx_personality_v0 {
  %5 = alloca %"class.std::optional", align 8
  %6 = alloca %"struct.Luau::NotNull", align 8
  %7 = alloca %"struct.Luau::NotNull.16", align 8
  %8 = alloca ptr, align 8
  %9 = alloca ptr, align 8
  %10 = alloca %"struct.Luau::ApplyMappedGenerics", align 8
  %11 = alloca %"struct.Luau::NotNull", align 8
  %12 = alloca %"struct.Luau::NotNull.16", align 8
  %13 = alloca ptr, align 8
  %14 = alloca i32, align 4
  %15 = getelementptr inbounds nuw %"struct.Luau::NotNull", ptr %6, i32 0, i32 0
  store ptr %1, ptr %15, align 8
  %16 = getelementptr inbounds nuw %"struct.Luau::NotNull.16", ptr %7, i32 0, i32 0
  store ptr %2, ptr %16, align 8
  store ptr %0, ptr %8, align 8, !tbaa !94
  store ptr %3, ptr %9, align 8, !tbaa !96
  %17 = load ptr, ptr %8, align 8
  call void @llvm.lifetime.start.p0(i64 496, ptr %10) #4
  call void @llvm.memcpy.p0.p0.i64(ptr align 8 %11, ptr align 8 %6, i64 8, i1 false), !tbaa.struct !98
  call void @llvm.memcpy.p0.p0.i64(ptr align 8 %12, ptr align 8 %7, i64 8, i1 false), !tbaa.struct !101
  %18 = getelementptr inbounds nuw %"struct.Luau::NotNull", ptr %11, i32 0, i32 0
  %19 = load ptr, ptr %18, align 8
  %20 = getelementptr inbounds nuw %"struct.Luau::NotNull.16", ptr %12, i32 0, i32 0
  %21 = load ptr, ptr %20, align 8
  call void @_ZN4Luau19ApplyMappedGenericsC2ENS_7NotNullINS_12BuiltinTypesEEENS1_INS_9TypeArenaEEERNS_20SubtypingEnvironmentE(ptr noundef nonnull align 8 dereferenceable(496) %10, ptr %19, ptr %21, ptr noundef nonnull align 8 dereferenceable(176) %17)
  %22 = load ptr, ptr %9, align 8, !tbaa !96
  %23 = invoke { ptr, i8 } @_ZN4Luau12Substitution10substituteEPKNS_4TypeE(ptr noundef nonnull align 8 dereferenceable(472) %10, ptr noundef %22)
          to label %24 unwind label %34

24:                                               ; preds = %4
  %25 = getelementptr inbounds nuw %"class.std::optional", ptr %5, i32 0, i32 0
  %26 = getelementptr inbounds nuw %"struct.std::_Optional_base", ptr %25, i32 0, i32 0
  %27 = getelementptr inbounds nuw { ptr, i8 }, ptr %26, i32 0, i32 0
  %28 = extractvalue { ptr, i8 } %23, 0
  store ptr %28, ptr %27, align 8
  %29 = getelementptr inbounds nuw { ptr, i8 }, ptr %26, i32 0, i32 1
  %30 = extractvalue { ptr, i8 } %23, 1
  store i8 %30, ptr %29, align 8
  call void @_ZN4Luau12SubstitutionD2Ev(ptr noundef nonnull align 8 dereferenceable(496) %10) #4
  call void @llvm.lifetime.end.p0(i64 496, ptr %10) #4
  %31 = getelementptr inbounds nuw %"class.std::optional", ptr %5, i32 0, i32 0
  %32 = getelementptr inbounds nuw %"struct.std::_Optional_base", ptr %31, i32 0, i32 0
  %33 = load { ptr, i8 }, ptr %32, align 8
  ret { ptr, i8 } %33

34:                                               ; preds = %4
  %35 = landingpad { ptr, i32 }
          cleanup
  %36 = extractvalue { ptr, i32 } %35, 0
  store ptr %36, ptr %13, align 8
  %37 = extractvalue { ptr, i32 } %35, 1
  store i32 %37, ptr %14, align 4
  call void @_ZN4Luau12SubstitutionD2Ev(ptr noundef nonnull align 8 dereferenceable(496) %10) #4
  call void @llvm.lifetime.end.p0(i64 496, ptr %10) #4
  br label %38

38:                                               ; preds = %34
  %39 = load ptr, ptr %13, align 8
  %40 = load i32, ptr %14, align 4
  %41 = insertvalue { ptr, i32 } poison, ptr %39, 0
  %42 = insertvalue { ptr, i32 } %41, i32 %40, 1
  resume { ptr, i32 } %42
}