; Function Attrs: mustprogress uwtable
define dso_local { ptr, i8 } @_ZN4Luau20SubtypingEnvironment19applyMappedGenericsENS_7NotNullINS_12BuiltinTypesEEENS1_INS_9TypeArenaEEEPKNS_4TypeE(ptr noundef nonnull align 8 dereferenceable(176) %0, ptr %1, ptr %2, ptr noundef %3) local_unnamed_addr #4 align 2 personality ptr @__gxx_personality_v0 {
  %5 = alloca %"struct.Luau::ApplyMappedGenerics", align 8
  call void @llvm.lifetime.start.p0(i64 496, ptr nonnull %5) #29
  %6 = tail call noundef ptr @_ZN4Luau6TxnLog5emptyEv()
  call void @_ZN4Luau12SubstitutionC2EPKNS_6TxnLogEPNS_9TypeArenaE(ptr noundef nonnull align 8 dereferenceable(496) %5, ptr noundef %6, ptr noundef %2)
  store ptr getelementptr inbounds nuw inrange(-16, 80) (i8, ptr @_ZTVN4Luau19ApplyMappedGenericsE, i64 16), ptr %5, align 8, !tbaa !69
  %7 = getelementptr inbounds nuw i8, ptr %5, i64 472
  store ptr %1, ptr %7, align 8, !tbaa !71
  %8 = getelementptr inbounds nuw i8, ptr %5, i64 480
  %9 = ptrtoint ptr %2 to i64
  store i64 %9, ptr %8, align 8, !tbaa !73
  %10 = getelementptr inbounds nuw i8, ptr %5, i64 488
  store ptr %0, ptr %10, align 8, !tbaa !75
  %11 = invoke { ptr, i8 } @_ZN4Luau12Substitution10substituteEPKNS_4TypeE(ptr noundef nonnull align 8 dereferenceable(472) %5, ptr noundef %3)
          to label %12 unwind label %13

12:                                               ; preds = %4
  call void @_ZN4Luau12SubstitutionD2Ev(ptr noundef nonnull align 8 dereferenceable(496) %5) #29
  call void @llvm.lifetime.end.p0(i64 496, ptr nonnull %5) #29
  ret { ptr, i8 } %11

13:                                               ; preds = %4
  %14 = landingpad { ptr, i32 }
          cleanup
  call void @_ZN4Luau12SubstitutionD2Ev(ptr noundef nonnull align 8 dereferenceable(496) %5) #29
  call void @llvm.lifetime.end.p0(i64 496, ptr nonnull %5) #29
  resume { ptr, i32 } %14
}